target datalayout = "e-m:e-p270:32:32-p271:32:32-p272:64:64-i64:64-i128:128-f80:128-n8:16:32:64-S128"
target triple = "x86_64-pc-linux-gnu"

%struct.CommonEntry = type { i32, double }

; Function Attrs: nounwind uwtable
define internal i32 @common_entry_cmp(ptr noundef %0, ptr noundef %1) #0 {
  %3 = alloca i32, align 4
  %4 = alloca ptr, align 8
  %5 = alloca ptr, align 8
  %6 = alloca double, align 8
  %7 = alloca double, align 8
  %8 = alloca i32, align 4
  store ptr %0, ptr %4, align 8
  store ptr %1, ptr %5, align 8
  call void @llvm.lifetime.start.p0(i64 8, ptr %6) #8
  %9 = load ptr, ptr %4, align 8
  %10 = getelementptr inbounds nuw %struct.CommonEntry, ptr %9, i32 0, i32 1
  %11 = load double, ptr %10, align 8
  store double %11, ptr %6, align 8
  call void @llvm.lifetime.start.p0(i64 8, ptr %7) #8
  %12 = load ptr, ptr %5, align 8
  %13 = getelementptr inbounds nuw %struct.CommonEntry, ptr %12, i32 0, i32 1
  %14 = load double, ptr %13, align 8
  store double %14, ptr %7, align 8
  %15 = load double, ptr %6, align 8
  %16 = load double, ptr %7, align 8
  %17 = fcmp olt double %15, %16
  br i1 %17, label %18, label %19

18:                                               ; preds = %2
  store i32 -1, ptr %3, align 4
  store i32 1, ptr %8, align 4
  br label %25

19:                                               ; preds = %2
  %20 = load double, ptr %6, align 8
  %21 = load double, ptr %7, align 8
  %22 = fcmp ogt double %20, %21
  br i1 %22, label %23, label %24

23:                                               ; preds = %19
  store i32 1, ptr %3, align 4
  store i32 1, ptr %8, align 4
  br label %25

24:                                               ; preds = %19
  store i32 0, ptr %3, align 4
  store i32 1, ptr %8, align 4
  br label %25

25:                                               ; preds = %24, %23, %18
  call void @llvm.lifetime.end.p0(i64 8, ptr %7) #8
  call void @llvm.lifetime.end.p0(i64 8, ptr %6) #8
  %26 = load i32, ptr %3, align 4
  ret i32 %26
}